target datalayout = "e-m:e-p270:32:32-p271:32:32-p272:64:64-i64:64-i128:128-f80:128-n8:16:32:64-S128"
target triple = "x86_64-pc-linux-gnu"

; Function Attrs: nounwind uwtable
define i32 @ff_need_new_slices(i32 noundef %0, i32 noundef %1, i32 noundef %2) #1 {
  %4 = alloca i32, align 4
  %5 = alloca i32, align 4
  %6 = alloca i32, align 4
  %7 = alloca i32, align 4
  %8 = alloca i32, align 4
  store i32 %0, ptr %4, align 4, !tbaa !45
  store i32 %1, ptr %5, align 4, !tbaa !45
  store i32 %2, ptr %6, align 4, !tbaa !45
  call void @llvm.lifetime.start.p0(i64 4, ptr %7) #9
  %9 = load i32, ptr %6, align 4, !tbaa !45
  %10 = shl i32 1, %9
  store i32 %10, ptr %7, align 4, !tbaa !45
  call void @llvm.lifetime.start.p0(i64 4, ptr %8) #9
  %11 = load i32, ptr %4, align 4, !tbaa !45
  %12 = sext i32 %11 to i64
  %13 = load i32, ptr %5, align 4, !tbaa !45
  %14 = sub nsw i32 %13, 1
  %15 = sext i32 %14 to i64
  %16 = mul nsw i64 %12, %15
  %17 = load i32, ptr %5, align 4, !tbaa !45
  %18 = sext i32 %17 to i64
  %19 = sdiv i64 %16, %18
  %20 = trunc i64 %19 to i32
  store i32 %20, ptr %8, align 4, !tbaa !45
  %21 = load i32, ptr %4, align 4, !tbaa !45
  %22 = load i32, ptr %7, align 4, !tbaa !45
  %23 = srem i32 %21, %22
  %24 = icmp ne i32 %23, 0
  br i1 %24, label %25, label %32

25:                                               ; preds = %3
  %26 = load i32, ptr %4, align 4, !tbaa !45
  %27 = load i32, ptr %8, align 4, !tbaa !45
  %28 = sub nsw i32 %26, %27
  %29 = load i32, ptr %7, align 4, !tbaa !45
  %30 = srem i32 %28, %29
  %31 = icmp eq i32 %30, 0
  br label %32

32:                                               ; preds = %25, %3
  %33 = phi i1 [ false, %3 ], [ %31, %25 ]
  %34 = zext i1 %33 to i32
  call void @llvm.lifetime.end.p0(i64 4, ptr %8) #9
  call void @llvm.lifetime.end.p0(i64 4, ptr %7) #9
  ret i32 %34
}