; Function Attrs: mustprogress nofree norecurse nosync nounwind willreturn memory(none) uwtable
define range(i32 0, 2) i32 @ff_need_new_slices(i32 noundef %0, i32 noundef %1, i32 noundef %2) local_unnamed_addr #4 {
  %notmask = shl nsw i32 -1, %2
  %4 = xor i32 %notmask, -1
  %5 = and i32 %0, %4
  %.not = icmp eq i32 %5, 0
  br i1 %.not, label %18, label %6

6:                                                ; preds = %3
  %7 = sext i32 %0 to i64
  %8 = add nsw i32 %1, -1
  %9 = sext i32 %8 to i64
  %10 = mul nsw i64 %9, %7
  %11 = sext i32 %1 to i64
  %12 = sdiv i64 %10, %11
  %13 = trunc i64 %12 to i32
  %14 = sub nsw i32 %0, %13
  %15 = and i32 %14, %4
  %16 = icmp eq i32 %15, 0
  %17 = zext i1 %16 to i32
  br label %18

18:                                               ; preds = %6, %3
  %19 = phi i32 [ 0, %3 ], [ %17, %6 ]
  ret i32 %19
}